; Function Attrs: mustprogress uwtable
define dso_local void @_ZNK9cmDepends5ClearERKNSt7__cxx1112basic_stringIcSt11char_traitsIcESaIcEEE(ptr nocapture noundef nonnull readonly align 8 dereferenceable(120) %0, ptr noundef nonnull align 8 dereferenceable(32) %1) local_unnamed_addr #5 align 2 personality ptr @__gxx_personality_v0 {
  %3 = alloca [3 x %"struct.std::pair.260"], align 8
  %4 = alloca %"class.std::__cxx11::basic_string", align 8
  %5 = alloca %class.cmGeneratedFileStream, align 8
  %6 = getelementptr inbounds i8, ptr %0, i64 16
  %7 = load i8, ptr %6, align 8
  %8 = and i8 %7, 1
  %.not = icmp eq i8 %8, 0
  br i1 %.not, label %21, label %9

9:                                                ; preds = %2
  call void @llvm.lifetime.start.p0(i64 72, ptr nonnull %3)
  store i64 26, ptr %3, align 8, !alias.scope !8, !noalias !11
  %.sroa.2.0..sroa_idx.i.i = getelementptr inbounds i8, ptr %3, i64 8
  store ptr @.str.1, ptr %.sroa.2.0..sroa_idx.i.i, align 8, !alias.scope !8, !noalias !11
  %10 = getelementptr inbounds i8, ptr %3, i64 16
  store ptr null, ptr %10, align 8, !alias.scope !8, !noalias !11
  %11 = getelementptr inbounds i8, ptr %3, i64 24
  %12 = tail call { i64, ptr } @_ZNKSt7__cxx1112basic_stringIcSt11char_traitsIcESaIcEEcvSt17basic_string_viewIcS2_EEv(ptr noundef nonnull align 8 dereferenceable(32) %1) #16, !noalias !11
  %13 = extractvalue { i64, ptr } %12, 0
  %14 = extractvalue { i64, ptr } %12, 1
  store i64 %13, ptr %11, align 8, !alias.scope !14, !noalias !11
  %.sroa.2.0..sroa_idx.i7.i = getelementptr inbounds i8, ptr %3, i64 32
  store ptr %14, ptr %.sroa.2.0..sroa_idx.i7.i, align 8, !alias.scope !14, !noalias !11
  %15 = getelementptr inbounds i8, ptr %3, i64 40
  store ptr null, ptr %15, align 8, !alias.scope !14, !noalias !11
  %16 = getelementptr inbounds i8, ptr %3, i64 48
  store i64 3, ptr %16, align 8, !alias.scope !17, !noalias !11
  %.sroa.2.0..sroa_idx.i16.i = getelementptr inbounds i8, ptr %3, i64 56
  store ptr @.str.2, ptr %.sroa.2.0..sroa_idx.i16.i, align 8, !alias.scope !17, !noalias !11
  %17 = getelementptr inbounds i8, ptr %3, i64 64
  store ptr null, ptr %17, align 8, !alias.scope !17, !noalias !11
  call void @_Z10cmCatViewsSt16initializer_listISt4pairISt17basic_string_viewIcSt11char_traitsIcEEPNSt7__cxx1112basic_stringIcS3_SaIcEEEEE(ptr dead_on_unwind nonnull writable sret(%"class.std::__cxx11::basic_string") align 8 %4, ptr nonnull %3, i64 3)
  call void @llvm.lifetime.end.p0(i64 72, ptr nonnull %3)
  invoke void @_ZN13cmSystemTools6StdoutERKNSt7__cxx1112basic_stringIcSt11char_traitsIcESaIcEEE(ptr noundef nonnull align 8 dereferenceable(32) %4)
          to label %18 unwind label %19

18:                                               ; preds = %9
  call void @_ZNSt7__cxx1112basic_stringIcSt11char_traitsIcESaIcEED1Ev(ptr noundef nonnull align 8 dereferenceable(32) %4) #16
  br label %21

19:                                               ; preds = %9
  %20 = landingpad { ptr, i32 }
          cleanup
  call void @_ZNSt7__cxx1112basic_stringIcSt11char_traitsIcESaIcEED1Ev(ptr noundef nonnull align 8 dereferenceable(32) %4) #16
  br label %26

21:                                               ; preds = %18, %2
  call void @_ZN21cmGeneratedFileStreamC1ERKNSt7__cxx1112basic_stringIcSt11char_traitsIcESaIcEEEb16codecvt_Encoding(ptr noundef nonnull align 8 dereferenceable(348) %5, ptr noundef nonnull align 8 dereferenceable(32) %1, i1 noundef zeroext false, i32 noundef 0)
  %22 = invoke noundef nonnull align 8 dereferenceable(8) ptr @_ZStlsISt11char_traitsIcEERSt13basic_ostreamIcT_ES5_PKc(ptr noundef nonnull align 8 dereferenceable(8) %5, ptr noundef nonnull @.str.3)
          to label %23 unwind label %24

23:                                               ; preds = %21
  call void @_ZN21cmGeneratedFileStreamD1Ev(ptr noundef nonnull align 8 dereferenceable(348) %5) #16
  ret void

24:                                               ; preds = %21
  %25 = landingpad { ptr, i32 }
          cleanup
  call void @_ZN21cmGeneratedFileStreamD1Ev(ptr noundef nonnull align 8 dereferenceable(348) %5) #16
  br label %26

26:                                               ; preds = %24, %19
  %.pn = phi { ptr, i32 } [ %25, %24 ], [ %20, %19 ]
  resume { ptr, i32 } %.pn
}